target datalayout = "e-m:e-p270:32:32-p271:32:32-p272:64:64-i64:64-i128:128-f80:128-n8:16:32:64-S128"
target triple = "x86_64-unknown-linux-gnu"

%"class.absl::debian2::string_view" = type { ptr, i64 }
%class.anon = type { i8 }
%class.anon.29 = type { i8 }

; Function Attrs: mustprogress nounwind uwtable
define linkonce_odr void @_ZZN4absl7debian211string_view13remove_prefixEmENKUlvE_clEv(ptr noundef nonnull align 1 dereferenceable(1) %this) #0 comdat align 2 {
entry:
  %this.addr = alloca ptr, align 8
  store ptr %this, ptr %this.addr, align 8
  br label %do.body

do.body:                                          ; preds = %entry
  call void @llvm.trap()
  unreachable

do.end:                                           ; No predecessors!
  ret void
}

; Function Attrs: mustprogress nounwind uwtable
define linkonce_odr void @_ZZNK4absl7debian211string_viewixEmENKUlvE_clEv(ptr noundef nonnull align 1 dereferenceable(1) %this) #0 comdat align 2 {
entry:
  %this.addr = alloca ptr, align 8
  store ptr %this, ptr %this.addr, align 8
  br label %do.body

do.body:                                          ; preds = %entry
  call void @llvm.trap()
  unreachable

do.end:                                           ; No predecessors!
  ret void
}

; Function Attrs: mustprogress uwtable
define linkonce_odr void @_ZN4absl7debian211string_view13remove_prefixEm(ptr noundef nonnull align 8 dereferenceable(16) %this, i64 noundef %n) #1 comdat align 2 {
entry:
  %this.addr = alloca ptr, align 8
  %n.addr = alloca i64, align 8
  %ref.tmp = alloca %class.anon.29, align 1
  store ptr %this, ptr %this.addr, align 8
  store i64 %n, ptr %n.addr, align 8
  %this1 = load ptr, ptr %this.addr, align 8
  %0 = load i64, ptr %n.addr, align 8
  %length_ = getelementptr inbounds %"class.absl::debian2::string_view", ptr %this1, i32 0, i32 1
  %1 = load i64, ptr %length_, align 8
  %cmp = icmp ule i64 %0, %1
  br i1 %cmp, label %cond.true, label %cond.false

cond.true:                                        ; preds = %entry
  br label %cond.end

cond.false:                                       ; preds = %entry
  call void @_ZZN4absl7debian211string_view13remove_prefixEmENKUlvE_clEv(ptr noundef nonnull align 1 dereferenceable(1) %ref.tmp)
  br label %cond.end

cond.end:                                         ; preds = %cond.false, %cond.true
  %2 = load i64, ptr %n.addr, align 8
  %ptr_ = getelementptr inbounds %"class.absl::debian2::string_view", ptr %this1, i32 0, i32 0
  %3 = load ptr, ptr %ptr_, align 8
  %add.ptr = getelementptr inbounds i8, ptr %3, i64 %2
  store ptr %add.ptr, ptr %ptr_, align 8
  %4 = load i64, ptr %n.addr, align 8
  %length_2 = getelementptr inbounds %"class.absl::debian2::string_view", ptr %this1, i32 0, i32 1
  %5 = load i64, ptr %length_2, align 8
  %sub = sub i64 %5, %4
  store i64 %sub, ptr %length_2, align 8
  ret void
}

; Function Attrs: mustprogress nounwind uwtable
define linkonce_odr noundef i64 @_ZNK4absl7debian211string_view4sizeEv(ptr noundef nonnull align 8 dereferenceable(16) %this) #0 comdat align 2 {
entry:
  %this.addr = alloca ptr, align 8
  store ptr %this, ptr %this.addr, align 8
  %this1 = load ptr, ptr %this.addr, align 8
  %length_ = getelementptr inbounds %"class.absl::debian2::string_view", ptr %this1, i32 0, i32 1
  %0 = load i64, ptr %length_, align 8
  ret i64 %0
}

; Function Attrs: mustprogress nounwind uwtable
define linkonce_odr noundef zeroext i1 @_ZN4absl7debian213ascii_isdigitEh(i8 noundef zeroext %c) #0 comdat {
entry:
  %c.addr = alloca i8, align 1
  store i8 %c, ptr %c.addr, align 1
  %0 = load i8, ptr %c.addr, align 1
  %conv = zext i8 %0 to i32
  %cmp = icmp sge i32 %conv, 48
  br i1 %cmp, label %land.rhs, label %land.end

land.rhs:                                         ; preds = %entry
  %1 = load i8, ptr %c.addr, align 1
  %conv1 = zext i8 %1 to i32
  %cmp2 = icmp sle i32 %conv1, 57
  br label %land.end

land.end:                                         ; preds = %land.rhs, %entry
  %2 = phi i1 [ false, %entry ], [ %cmp2, %land.rhs ]
  ret i1 %2
}

; Function Attrs: mustprogress uwtable
define linkonce_odr noundef nonnull align 1 dereferenceable(1) ptr @_ZNK4absl7debian211string_viewixEm(ptr noundef nonnull align 8 dereferenceable(16) %this, i64 noundef %i) #1 comdat align 2 {
entry:
  %this.addr = alloca ptr, align 8
  %i.addr = alloca i64, align 8
  %ref.tmp = alloca %class.anon, align 1
  store ptr %this, ptr %this.addr, align 8
  store i64 %i, ptr %i.addr, align 8
  %this1 = load ptr, ptr %this.addr, align 8
  %0 = load i64, ptr %i.addr, align 8
  %call = call noundef i64 @_ZNK4absl7debian211string_view4sizeEv(ptr noundef nonnull align 8 dereferenceable(16) %this1) #12
  %cmp = icmp ult i64 %0, %call
  br i1 %cmp, label %cond.true, label %cond.false

cond.true:                                        ; preds = %entry
  br label %cond.end

cond.false:                                       ; preds = %entry
  call void @_ZZNK4absl7debian211string_viewixEmENKUlvE_clEv(ptr noundef nonnull align 1 dereferenceable(1) %ref.tmp)
  br label %cond.end

cond.end:                                         ; preds = %cond.false, %cond.true
  %ptr_ = getelementptr inbounds %"class.absl::debian2::string_view", ptr %this1, i32 0, i32 0
  %1 = load ptr, ptr %ptr_, align 8
  %2 = load i64, ptr %i.addr, align 8
  %arrayidx = getelementptr inbounds i8, ptr %1, i64 %2
  ret ptr %arrayidx
}

; Function Attrs: mustprogress nounwind uwtable
define linkonce_odr noundef zeroext i1 @_ZNK4absl7debian211string_view5emptyEv(ptr noundef nonnull align 8 dereferenceable(16) %this) #0 comdat align 2 {
entry:
  %this.addr = alloca ptr, align 8
  store ptr %this, ptr %this.addr, align 8
  %this1 = load ptr, ptr %this.addr, align 8
  %length_ = getelementptr inbounds %"class.absl::debian2::string_view", ptr %this1, i32 0, i32 1
  %0 = load i64, ptr %length_, align 8
  %cmp = icmp eq i64 %0, 0
  ret i1 %cmp
}

; Function Attrs: mustprogress uwtable
define internal noundef zeroext i1 @_ZN3re2L12ParseIntegerEPN4absl7debian211string_viewEPi(ptr noundef %s, ptr noundef %np) #1 {
entry:
  %retval = alloca i1, align 1
  %s.addr = alloca ptr, align 8
  %np.addr = alloca ptr, align 8
  %n = alloca i32, align 4
  %c = alloca i32, align 4
  store ptr %s, ptr %s.addr, align 8
  store ptr %np, ptr %np.addr, align 8
  %0 = load ptr, ptr %s.addr, align 8
  %call = call noundef zeroext i1 @_ZNK4absl7debian211string_view5emptyEv(ptr noundef nonnull align 8 dereferenceable(16) %0) #12
  br i1 %call, label %if.then, label %lor.lhs.false

lor.lhs.false:                                    ; preds = %entry
  %1 = load ptr, ptr %s.addr, align 8
  %call1 = call noundef nonnull align 1 dereferenceable(1) ptr @_ZNK4absl7debian211string_viewixEm(ptr noundef nonnull align 8 dereferenceable(16) %1, i64 noundef 0)
  %2 = load i8, ptr %call1, align 1
  %conv = sext i8 %2 to i32
  %and = and i32 %conv, 255
  %conv2 = trunc i32 %and to i8
  %call3 = call noundef zeroext i1 @_ZN4absl7debian213ascii_isdigitEh(i8 noundef zeroext %conv2)
  br i1 %call3, label %if.end, label %if.then

if.then:                                          ; preds = %lor.lhs.false, %entry
  store i1 false, ptr %retval, align 1
  br label %return

if.end:                                           ; preds = %lor.lhs.false
  %3 = load ptr, ptr %s.addr, align 8
  %call4 = call noundef i64 @_ZNK4absl7debian211string_view4sizeEv(ptr noundef nonnull align 8 dereferenceable(16) %3) #12
  %cmp = icmp uge i64 %call4, 2
  br i1 %cmp, label %land.lhs.true, label %if.end15

land.lhs.true:                                    ; preds = %if.end
  %4 = load ptr, ptr %s.addr, align 8
  %call5 = call noundef nonnull align 1 dereferenceable(1) ptr @_ZNK4absl7debian211string_viewixEm(ptr noundef nonnull align 8 dereferenceable(16) %4, i64 noundef 0)
  %5 = load i8, ptr %call5, align 1
  %conv6 = sext i8 %5 to i32
  %cmp7 = icmp eq i32 %conv6, 48
  br i1 %cmp7, label %land.lhs.true8, label %if.end15

land.lhs.true8:                                   ; preds = %land.lhs.true
  %6 = load ptr, ptr %s.addr, align 8
  %call9 = call noundef nonnull align 1 dereferenceable(1) ptr @_ZNK4absl7debian211string_viewixEm(ptr noundef nonnull align 8 dereferenceable(16) %6, i64 noundef 1)
  %7 = load i8, ptr %call9, align 1
  %conv10 = sext i8 %7 to i32
  %and11 = and i32 %conv10, 255
  %conv12 = trunc i32 %and11 to i8
  %call13 = call noundef zeroext i1 @_ZN4absl7debian213ascii_isdigitEh(i8 noundef zeroext %conv12)
  br i1 %call13, label %if.then14, label %if.end15

if.then14:                                        ; preds = %land.lhs.true8
  store i1 false, ptr %retval, align 1
  br label %return

if.end15:                                         ; preds = %land.lhs.true8, %land.lhs.true, %if.end
  store i32 0, ptr %n, align 4
  br label %while.cond

while.cond:                                       ; preds = %if.end24, %if.end15
  %8 = load ptr, ptr %s.addr, align 8
  %call16 = call noundef zeroext i1 @_ZNK4absl7debian211string_view5emptyEv(ptr noundef nonnull align 8 dereferenceable(16) %8) #12
  br i1 %call16, label %land.end, label %land.rhs

land.rhs:                                         ; preds = %while.cond
  %9 = load ptr, ptr %s.addr, align 8
  %call17 = call noundef nonnull align 1 dereferenceable(1) ptr @_ZNK4absl7debian211string_viewixEm(ptr noundef nonnull align 8 dereferenceable(16) %9, i64 noundef 0)
  %10 = load i8, ptr %call17, align 1
  %conv18 = sext i8 %10 to i32
  %and19 = and i32 %conv18, 255
  store i32 %and19, ptr %c, align 4
  %conv20 = trunc i32 %and19 to i8
  %call21 = call noundef zeroext i1 @_ZN4absl7debian213ascii_isdigitEh(i8 noundef zeroext %conv20)
  br label %land.end

land.end:                                         ; preds = %land.rhs, %while.cond
  %11 = phi i1 [ false, %while.cond ], [ %call21, %land.rhs ]
  br i1 %11, label %while.body, label %while.end

while.body:                                       ; preds = %land.end
  %12 = load i32, ptr %n, align 4
  %cmp22 = icmp sge i32 %12, 100000000
  br i1 %cmp22, label %if.then23, label %if.end24

if.then23:                                        ; preds = %while.body
  store i1 false, ptr %retval, align 1
  br label %return

if.end24:                                         ; preds = %while.body
  %13 = load i32, ptr %n, align 4
  %mul = mul nsw i32 %13, 10
  %14 = load i32, ptr %c, align 4
  %add = add nsw i32 %mul, %14
  %sub = sub nsw i32 %add, 48
  store i32 %sub, ptr %n, align 4
  %15 = load ptr, ptr %s.addr, align 8
  call void @_ZN4absl7debian211string_view13remove_prefixEm(ptr noundef nonnull align 8 dereferenceable(16) %15, i64 noundef 1)
  br label %while.cond, !llvm.loop !49

while.end:                                        ; preds = %land.end
  %16 = load i32, ptr %n, align 4
  %17 = load ptr, ptr %np.addr, align 8
  store i32 %16, ptr %17, align 4
  store i1 true, ptr %retval, align 1
  br label %return

return:                                           ; preds = %while.end, %if.then23, %if.then14, %if.then
  %18 = load i1, ptr %retval, align 1
  ret i1 %18
}