; Function Attrs: mustprogress nofree norecurse nosync nounwind memory(read, argmem: readwrite, inaccessiblemem: none) uwtable
define internal fastcc noundef zeroext i1 @_ZN3re2L12ParseIntegerEPN4absl7debian211string_viewEPi(ptr nocapture noundef %s, ptr nocapture noundef writeonly %np) unnamed_addr #13 {
entry:
  %length_.i = getelementptr inbounds i8, ptr %s, i64 8
  %0 = load i64, ptr %length_.i, align 8
  %cmp.i = icmp eq i64 %0, 0
  br i1 %cmp.i, label %return, label %_ZNK4absl7debian211string_viewixEm.exit

_ZNK4absl7debian211string_viewixEm.exit:          ; preds = %entry
  %1 = load ptr, ptr %s, align 8
  %2 = load i8, ptr %1, align 1
  %3 = add i8 %2, -48
  %4 = icmp ult i8 %3, 10
  br i1 %4, label %if.end, label %return

if.end:                                           ; preds = %_ZNK4absl7debian211string_viewixEm.exit
  %cmp = icmp ne i64 %0, 1
  %cmp7 = icmp eq i8 %2, 48
  %or.cond = and i1 %cmp, %cmp7
  br i1 %or.cond, label %_ZNK4absl7debian211string_viewixEm.exit19, label %_ZNK4absl7debian211string_viewixEm.exit25.preheader

_ZNK4absl7debian211string_viewixEm.exit19:        ; preds = %if.end
  %arrayidx.i = getelementptr inbounds i8, ptr %1, i64 1
  %5 = load i8, ptr %arrayidx.i, align 1
  %6 = add i8 %5, -48
  %7 = icmp ult i8 %6, 10
  br i1 %7, label %return, label %_ZNK4absl7debian211string_viewixEm.exit25.preheader

_ZNK4absl7debian211string_viewixEm.exit25.preheader: ; preds = %if.end, %_ZNK4absl7debian211string_viewixEm.exit19
  br label %_ZNK4absl7debian211string_viewixEm.exit25

_ZNK4absl7debian211string_viewixEm.exit25:        ; preds = %_ZNK4absl7debian211string_viewixEm.exit25.preheader, %_ZN4absl7debian211string_view13remove_prefixEm.exit
  %add.ptr.i32 = phi ptr [ %add.ptr.i, %_ZN4absl7debian211string_view13remove_prefixEm.exit ], [ %1, %_ZNK4absl7debian211string_viewixEm.exit25.preheader ]
  %n.030 = phi i32 [ %sub, %_ZN4absl7debian211string_view13remove_prefixEm.exit ], [ 0, %_ZNK4absl7debian211string_viewixEm.exit25.preheader ]
  %8 = phi i64 [ %sub.i, %_ZN4absl7debian211string_view13remove_prefixEm.exit ], [ %0, %_ZNK4absl7debian211string_viewixEm.exit25.preheader ]
  %9 = load i8, ptr %add.ptr.i32, align 1
  %conv18 = zext i8 %9 to i32
  %10 = add i8 %9, -48
  %11 = icmp ult i8 %10, 10
  br i1 %11, label %while.body, label %while.end

while.body:                                       ; preds = %_ZNK4absl7debian211string_viewixEm.exit25
  %cmp22 = icmp sgt i32 %n.030, 99999999
  br i1 %cmp22, label %return, label %_ZN4absl7debian211string_view13remove_prefixEm.exit

_ZN4absl7debian211string_view13remove_prefixEm.exit: ; preds = %while.body
  %mul = mul nsw i32 %n.030, 10
  %add = add i32 %mul, -48
  %sub = add i32 %add, %conv18
  %add.ptr.i = getelementptr inbounds i8, ptr %add.ptr.i32, i64 1
  store ptr %add.ptr.i, ptr %s, align 8
  %sub.i = add i64 %8, -1
  store i64 %sub.i, ptr %length_.i, align 8
  %cmp.i21 = icmp eq i64 %sub.i, 0
  br i1 %cmp.i21, label %while.end, label %_ZNK4absl7debian211string_viewixEm.exit25, !llvm.loop !62

while.end:                                        ; preds = %_ZNK4absl7debian211string_viewixEm.exit25, %_ZN4absl7debian211string_view13remove_prefixEm.exit
  %n.0.lcssa.ph = phi i32 [ %n.030, %_ZNK4absl7debian211string_viewixEm.exit25 ], [ %sub, %_ZN4absl7debian211string_view13remove_prefixEm.exit ]
  store i32 %n.0.lcssa.ph, ptr %np, align 4
  br label %return

return:                                           ; preds = %while.body, %_ZNK4absl7debian211string_viewixEm.exit19, %entry, %_ZNK4absl7debian211string_viewixEm.exit, %while.end
  %retval.0 = phi i1 [ true, %while.end ], [ false, %_ZNK4absl7debian211string_viewixEm.exit ], [ false, %entry ], [ false, %_ZNK4absl7debian211string_viewixEm.exit19 ], [ false, %while.body ]
  ret i1 %retval.0
}